; Function Attrs: nounwind sspstrong uwtable
define dso_local void @job_transition_to_ready(ptr noundef %0) local_unnamed_addr #0 {
glib_autoptr_cleanup_QemuLockable.exit:
  %1 = load atomic i64, ptr @qemu_mutex_lock_func monotonic, align 8
  %2 = inttoptr i64 %1 to ptr
  tail call void %2(ptr noundef nonnull @job_mutex, ptr noundef nonnull @.str.29, i32 noundef 56) #15
  tail call fastcc void @job_state_transition_locked(ptr noundef %0, i32 noundef 4)
  %3 = getelementptr inbounds nuw i8, ptr %0, i64 224
  tail call void @notifier_list_notify(ptr noundef nonnull %3, ptr noundef %0) #15
  tail call void @qemu_mutex_unlock_impl(ptr noundef nonnull @job_mutex, ptr noundef nonnull @.str.29, i32 noundef 56) #15
  ret void
}